target datalayout = "e-m:e-p270:32:32-p271:32:32-p272:64:64-i64:64-i128:128-f80:128-n8:16:32:64-S128"
target triple = "x86_64-pc-linux-gnu"

@.str = private unnamed_addr constant [20 x i8] c"  Poly1305 test %u \00", align 1
@test_keys = internal constant [2 x [32 x i8]] [[32 x i8] c"\85\D6\BExWUm3\7FDR\FEB\D5\06\A8\01\03\80\8A\FB\0D\B2\FDJ\BF\F6\AFAI\F5\1B", [32 x i8] c"\1C\92@\A5\EBU\D3\8A\F33\88\86\04\F6\B5\F0G9\17\C1@+\80\09\9D\CA\\\BC pu\C0"], align 16
@test_data_len = internal constant [2 x i64] [i64 34, i64 127], align 16
@.str.1 = private unnamed_addr constant [16 x i8] c"error code: %i\0A\00", align 1
@test_mac = internal constant [2 x [16 x i8]] [[16 x i8] c"\A8\06\1D\C10Q6\C6\C2+\8B\AF\0C\01'\A9", [16 x i8] c"EAf\9A~\AA\EEa\E7\08\DC|\BC\C5\EBb"], align 16
@.str.2 = private unnamed_addr constant [14 x i8] c"failed (mac)\0A\00", align 1
@.str.3 = private unnamed_addr constant [8 x i8] c"passed\0A\00", align 1
@.str.4 = private unnamed_addr constant [2 x i8] c"\0A\00", align 1

; Function Attrs: nounwind uwtable
define hidden i32 @mbedtls_poly1305_self_test(i32 noundef %0) #0 {
  %2 = alloca i32, align 4
  %3 = alloca i32, align 4
  %4 = alloca [16 x i8], align 16
  %5 = alloca i32, align 4
  %6 = alloca i32, align 4
  %7 = alloca i32, align 4
  store i32 %0, ptr %3, align 4, !tbaa !10
  call void @llvm.lifetime.start.p0(i64 16, ptr %4) #8
  call void @llvm.lifetime.start.p0(i64 4, ptr %5) #8
  call void @llvm.lifetime.start.p0(i64 4, ptr %6) #8
  store i32 -110, ptr %6, align 4, !tbaa !10
  store i32 0, ptr %5, align 4, !tbaa !10
  br label %8

8:                                                ; preds = %67, %1
  %9 = load i32, ptr %5, align 4, !tbaa !10
  %10 = icmp ult i32 %9, 2
  br i1 %10, label %11, label %70

11:                                               ; preds = %8
  %12 = load i32, ptr %3, align 4, !tbaa !10
  %13 = icmp ne i32 %12, 0
  br i1 %13, label %14, label %17

14:                                               ; preds = %11
  %15 = load i32, ptr %5, align 4, !tbaa !10
  %16 = call i32 (ptr, ...) @printf(ptr noundef @.str, i32 noundef %15)
  br label %17

17:                                               ; preds = %14, %11
  %18 = load i32, ptr %5, align 4, !tbaa !10
  %19 = zext i32 %18 to i64
  %20 = getelementptr inbounds nuw [2 x [32 x i8]], ptr @test_keys, i64 0, i64 %19
  %21 = getelementptr inbounds [32 x i8], ptr %20, i64 0, i64 0
  %22 = load i32, ptr %5, align 4, !tbaa !10
  %23 = zext i32 %22 to i64
  %24 = getelementptr inbounds nuw [2 x [127 x i8]], ptr @test_data, i64 0, i64 %23
  %25 = getelementptr inbounds [127 x i8], ptr %24, i64 0, i64 0
  %26 = load i32, ptr %5, align 4, !tbaa !10
  %27 = zext i32 %26 to i64
  %28 = getelementptr inbounds nuw [2 x i64], ptr @test_data_len, i64 0, i64 %27
  %29 = load i64, ptr %28, align 8, !tbaa !16
  %30 = getelementptr inbounds [16 x i8], ptr %4, i64 0, i64 0
  %31 = call i32 @mbedtls_poly1305_mac(ptr noundef %21, ptr noundef %25, i64 noundef %29, ptr noundef %30)
  store i32 %31, ptr %6, align 4, !tbaa !10
  br label %32

32:                                               ; preds = %17
  %33 = load i32, ptr %6, align 4, !tbaa !10
  %34 = icmp eq i32 0, %33
  br i1 %34, label %42, label %35

35:                                               ; preds = %32
  %36 = load i32, ptr %3, align 4, !tbaa !10
  %37 = icmp ne i32 %36, 0
  br i1 %37, label %38, label %41

38:                                               ; preds = %35
  %39 = load i32, ptr %6, align 4, !tbaa !10
  %40 = call i32 (ptr, ...) @printf(ptr noundef @.str.1, i32 noundef %39)
  br label %41

41:                                               ; preds = %38, %35
  store i32 -1, ptr %2, align 4
  store i32 1, ptr %7, align 4
  br label %76

42:                                               ; preds = %32
  br label %43

43:                                               ; preds = %42
  br label %44

44:                                               ; preds = %43
  br label %45

45:                                               ; preds = %44
  %46 = getelementptr inbounds [16 x i8], ptr %4, i64 0, i64 0
  %47 = load i32, ptr %5, align 4, !tbaa !10
  %48 = zext i32 %47 to i64
  %49 = getelementptr inbounds nuw [2 x [16 x i8]], ptr @test_mac, i64 0, i64 %48
  %50 = getelementptr inbounds [16 x i8], ptr %49, i64 0, i64 0
  %51 = call i32 @memcmp(ptr noundef %46, ptr noundef %50, i64 noundef 16) #9
  %52 = icmp eq i32 0, %51
  br i1 %52, label %59, label %53

53:                                               ; preds = %45
  %54 = load i32, ptr %3, align 4, !tbaa !10
  %55 = icmp ne i32 %54, 0
  br i1 %55, label %56, label %58

56:                                               ; preds = %53
  %57 = call i32 (ptr, ...) @printf(ptr noundef @.str.2)
  br label %58

58:                                               ; preds = %56, %53
  store i32 -1, ptr %2, align 4
  store i32 1, ptr %7, align 4
  br label %76

59:                                               ; preds = %45
  br label %60

60:                                               ; preds = %59
  br label %61

61:                                               ; preds = %60
  %62 = load i32, ptr %3, align 4, !tbaa !10
  %63 = icmp ne i32 %62, 0
  br i1 %63, label %64, label %66

64:                                               ; preds = %61
  %65 = call i32 (ptr, ...) @printf(ptr noundef @.str.3)
  br label %66

66:                                               ; preds = %64, %61
  br label %67

67:                                               ; preds = %66
  %68 = load i32, ptr %5, align 4, !tbaa !10
  %69 = add i32 %68, 1
  store i32 %69, ptr %5, align 4, !tbaa !10
  br label %8, !llvm.loop !20

70:                                               ; preds = %8
  %71 = load i32, ptr %3, align 4, !tbaa !10
  %72 = icmp ne i32 %71, 0
  br i1 %72, label %73, label %75

73:                                               ; preds = %70
  %74 = call i32 (ptr, ...) @printf(ptr noundef @.str.4)
  br label %75

75:                                               ; preds = %73, %70
  store i32 0, ptr %2, align 4
  store i32 1, ptr %7, align 4
  br label %76

76:                                               ; preds = %75, %58, %41
  call void @llvm.lifetime.end.p0(i64 4, ptr %6) #8
  call void @llvm.lifetime.end.p0(i64 4, ptr %5) #8
  call void @llvm.lifetime.end.p0(i64 16, ptr %4) #8
  %77 = load i32, ptr %2, align 4
  ret i32 %77
}