; Function Attrs: nounwind uwtable
define hidden range(i32 -1, 1) i32 @mbedtls_poly1305_self_test(i32 noundef %0) local_unnamed_addr #0 {
  %2 = alloca [16 x i8], align 16
  call void @llvm.lifetime.start.p0(i64 16, ptr nonnull %2) #9
  %.not17 = icmp eq i32 %0, 0
  br i1 %.not17, label %.split.us, label %.split

.split.us:                                        ; preds = %1, %11
  %3 = phi i1 [ false, %11 ], [ true, %1 ]
  %indvars.iv26 = phi i64 [ 1, %11 ], [ 0, %1 ]
  %4 = getelementptr inbounds nuw [2 x [32 x i8]], ptr @test_keys, i64 0, i64 %indvars.iv26
  %5 = getelementptr inbounds nuw [2 x [127 x i8]], ptr @test_data, i64 0, i64 %indvars.iv26
  %6 = getelementptr inbounds nuw [2 x i64], ptr @test_data_len, i64 0, i64 %indvars.iv26
  %7 = load i64, ptr %6, align 8, !tbaa !13
  %8 = call i32 @mbedtls_poly1305_mac(ptr noundef nonnull %4, ptr noundef nonnull %5, i64 noundef %7, ptr noundef nonnull %2)
  %9 = getelementptr inbounds nuw [2 x [16 x i8]], ptr @test_mac, i64 0, i64 %indvars.iv26
  %bcmp.us = call i32 @bcmp(ptr noundef nonnull dereferenceable(16) %2, ptr noundef nonnull dereferenceable(16) %9, i64 16)
  %10 = icmp eq i32 %bcmp.us, 0
  br i1 %10, label %11, label %.critedge

11:                                               ; preds = %.split.us
  br i1 %3, label %.split.us, label %.split23.us, !llvm.loop !14

.split:                                           ; preds = %1, %22
  %12 = phi i1 [ false, %22 ], [ true, %1 ]
  %indvars.iv = phi i64 [ 1, %22 ], [ 0, %1 ]
  %13 = trunc nuw nsw i64 %indvars.iv to i32
  %14 = tail call i32 (ptr, ...) @printf(ptr noundef nonnull dereferenceable(1) @.str, i32 noundef %13)
  %15 = getelementptr inbounds nuw [2 x [32 x i8]], ptr @test_keys, i64 0, i64 %indvars.iv
  %16 = getelementptr inbounds nuw [2 x [127 x i8]], ptr @test_data, i64 0, i64 %indvars.iv
  %17 = getelementptr inbounds nuw [2 x i64], ptr @test_data_len, i64 0, i64 %indvars.iv
  %18 = load i64, ptr %17, align 8, !tbaa !13
  %19 = call i32 @mbedtls_poly1305_mac(ptr noundef nonnull %15, ptr noundef nonnull %16, i64 noundef %18, ptr noundef nonnull %2)
  %20 = getelementptr inbounds nuw [2 x [16 x i8]], ptr @test_mac, i64 0, i64 %indvars.iv
  %bcmp = call i32 @bcmp(ptr noundef nonnull dereferenceable(16) %2, ptr noundef nonnull dereferenceable(16) %20, i64 16)
  %21 = icmp eq i32 %bcmp, 0
  br i1 %21, label %22, label %.split21.us

.split21.us:                                      ; preds = %.split
  %puts = tail call i32 @puts(ptr nonnull dereferenceable(1) @str)
  br label %.critedge

22:                                               ; preds = %.split
  %puts18 = tail call i32 @puts(ptr nonnull dereferenceable(1) @str.1)
  br i1 %12, label %.split, label %.split23.us, !llvm.loop !14

.split23.us:                                      ; preds = %22, %11
  br i1 %.not17, label %.critedge, label %23

23:                                               ; preds = %.split23.us
  %putchar = tail call i32 @putchar(i32 10)
  br label %.critedge

.critedge:                                        ; preds = %.split.us, %.split23.us, %23, %.split21.us
  %.015 = phi i32 [ -1, %.split21.us ], [ 0, %23 ], [ 0, %.split23.us ], [ -1, %.split.us ]
  call void @llvm.lifetime.end.p0(i64 16, ptr nonnull %2) #9
  ret i32 %.015
}